target datalayout = "e-m:e-p270:32:32-p271:32:32-p272:64:64-i64:64-i128:128-f80:128-n8:16:32:64-S128"
target triple = "x86_64-pc-linux-gnu"

%struct.ml_dsa_keygen_test_data_st = type { ptr, ptr, i64, ptr, i64, ptr, i64 }

@lib_ctx = internal global ptr null, align 8
@.str.29 = private unnamed_addr constant [30 x i8] c"../openssl/test/ml_dsa_test.c\00", align 1
@.str.30 = private unnamed_addr constant [55 x i8] c"pkey = do_gen_key(tst->name, tst->seed, tst->seed_len)\00", align 1
@.str.44 = private unnamed_addr constant [2 x i8] c"1\00", align 1
@.str.76 = private unnamed_addr constant [31 x i8] c"pkey_copy = EVP_PKEY_dup(pkey)\00", align 1
@.str.77 = private unnamed_addr constant [29 x i8] c"EVP_PKEY_eq(pkey, pkey_copy)\00", align 1
@.str.78 = private unnamed_addr constant [59 x i8] c"ctx = EVP_PKEY_CTX_new_from_pkey(lib_ctx, pkey_copy, NULL)\00", align 1
@.str.79 = private unnamed_addr constant [20 x i8] c"EVP_PKEY_check(ctx)\00", align 1

; Function Attrs: nounwind uwtable
define internal i32 @ml_dsa_key_dup_test() #0 {
  %1 = alloca i32, align 4
  %2 = alloca ptr, align 8
  %3 = alloca ptr, align 8
  %4 = alloca ptr, align 8
  %5 = alloca ptr, align 8
  call void @llvm.lifetime.start.p0(i64 4, ptr %1) #4
  store i32 0, ptr %1, align 4, !tbaa !9
  call void @llvm.lifetime.start.p0(i64 8, ptr %2) #4
  store ptr @ml_dsa_keygen_testdata, ptr %2, align 8, !tbaa !13
  call void @llvm.lifetime.start.p0(i64 8, ptr %3) #4
  store ptr null, ptr %3, align 8, !tbaa !15
  call void @llvm.lifetime.start.p0(i64 8, ptr %4) #4
  store ptr null, ptr %4, align 8, !tbaa !15
  call void @llvm.lifetime.start.p0(i64 8, ptr %5) #4
  store ptr null, ptr %5, align 8, !tbaa !29
  %6 = load ptr, ptr %2, align 8, !tbaa !13
  %7 = getelementptr inbounds nuw %struct.ml_dsa_keygen_test_data_st, ptr %6, i32 0, i32 0
  %8 = load ptr, ptr %7, align 8, !tbaa !17
  %9 = load ptr, ptr %2, align 8, !tbaa !13
  %10 = getelementptr inbounds nuw %struct.ml_dsa_keygen_test_data_st, ptr %9, i32 0, i32 1
  %11 = load ptr, ptr %10, align 8, !tbaa !20
  %12 = load ptr, ptr %2, align 8, !tbaa !13
  %13 = getelementptr inbounds nuw %struct.ml_dsa_keygen_test_data_st, ptr %12, i32 0, i32 2
  %14 = load i64, ptr %13, align 8, !tbaa !21
  %15 = call ptr @do_gen_key(ptr noundef %8, ptr noundef %11, i64 noundef %14)
  store ptr %15, ptr %3, align 8, !tbaa !15
  %16 = call i32 @test_ptr(ptr noundef @.str.29, i32 noundef 202, ptr noundef @.str.30, ptr noundef %15)
  %17 = icmp ne i32 %16, 0
  br i1 %17, label %18, label %40

18:                                               ; preds = %0
  %19 = load ptr, ptr %3, align 8, !tbaa !15
  %20 = call ptr @EVP_PKEY_dup(ptr noundef %19)
  store ptr %20, ptr %4, align 8, !tbaa !15
  %21 = call i32 @test_ptr(ptr noundef @.str.29, i32 noundef 203, ptr noundef @.str.76, ptr noundef %20)
  %22 = icmp ne i32 %21, 0
  br i1 %22, label %23, label %40

23:                                               ; preds = %18
  %24 = load ptr, ptr %3, align 8, !tbaa !15
  %25 = load ptr, ptr %4, align 8, !tbaa !15
  %26 = call i32 @EVP_PKEY_eq(ptr noundef %24, ptr noundef %25)
  %27 = call i32 @test_int_eq(ptr noundef @.str.29, i32 noundef 204, ptr noundef @.str.77, ptr noundef @.str.44, i32 noundef %26, i32 noundef 1)
  %28 = icmp ne i32 %27, 0
  br i1 %28, label %29, label %40

29:                                               ; preds = %23
  %30 = load ptr, ptr @lib_ctx, align 8, !tbaa !43
  %31 = load ptr, ptr %4, align 8, !tbaa !15
  %32 = call ptr @EVP_PKEY_CTX_new_from_pkey(ptr noundef %30, ptr noundef %31, ptr noundef null)
  store ptr %32, ptr %5, align 8, !tbaa !29
  %33 = call i32 @test_ptr(ptr noundef @.str.29, i32 noundef 205, ptr noundef @.str.78, ptr noundef %32)
  %34 = icmp ne i32 %33, 0
  br i1 %34, label %35, label %40

35:                                               ; preds = %29
  %36 = load ptr, ptr %5, align 8, !tbaa !29
  %37 = call i32 @EVP_PKEY_check(ptr noundef %36)
  %38 = call i32 @test_int_eq(ptr noundef @.str.29, i32 noundef 206, ptr noundef @.str.79, ptr noundef @.str.44, i32 noundef %37, i32 noundef 1)
  %39 = icmp ne i32 %38, 0
  br i1 %39, label %41, label %40

40:                                               ; preds = %35, %29, %23, %18, %0
  br label %42

41:                                               ; preds = %35
  store i32 1, ptr %1, align 4, !tbaa !9
  br label %42

42:                                               ; preds = %41, %40
  %43 = load ptr, ptr %3, align 8, !tbaa !15
  call void @EVP_PKEY_free(ptr noundef %43)
  %44 = load ptr, ptr %4, align 8, !tbaa !15
  call void @EVP_PKEY_free(ptr noundef %44)
  %45 = load ptr, ptr %5, align 8, !tbaa !29
  call void @EVP_PKEY_CTX_free(ptr noundef %45)
  %46 = load i32, ptr %1, align 4, !tbaa !9
  call void @llvm.lifetime.end.p0(i64 8, ptr %5) #4
  call void @llvm.lifetime.end.p0(i64 8, ptr %4) #4
  call void @llvm.lifetime.end.p0(i64 8, ptr %3) #4
  call void @llvm.lifetime.end.p0(i64 8, ptr %2) #4
  call void @llvm.lifetime.end.p0(i64 4, ptr %1) #4
  ret i32 %46
}