; Function Attrs: nounwind uwtable
define internal range(i32 0, 2) i32 @ml_dsa_key_dup_test() #1 {
  %1 = tail call fastcc ptr @do_gen_key(ptr noundef nonnull @.str.39, ptr noundef nonnull @ml_dsa_65_0_keygen_seed, i64 noundef 32)
  %2 = tail call i32 @test_ptr(ptr noundef nonnull @.str.29, i32 noundef 202, ptr noundef nonnull @.str.30, ptr noundef %1) #5
  %.not = icmp eq i32 %2, 0
  br i1 %.not, label %16, label %3

3:                                                ; preds = %0
  %4 = tail call ptr @EVP_PKEY_dup(ptr noundef %1) #5
  %5 = tail call i32 @test_ptr(ptr noundef nonnull @.str.29, i32 noundef 203, ptr noundef nonnull @.str.76, ptr noundef %4) #5
  %.not13 = icmp eq i32 %5, 0
  br i1 %.not13, label %16, label %6

6:                                                ; preds = %3
  %7 = tail call i32 @EVP_PKEY_eq(ptr noundef %1, ptr noundef %4) #5
  %8 = tail call i32 @test_int_eq(ptr noundef nonnull @.str.29, i32 noundef 204, ptr noundef nonnull @.str.77, ptr noundef nonnull @.str.44, i32 noundef %7, i32 noundef 1) #5
  %.not14 = icmp eq i32 %8, 0
  br i1 %.not14, label %16, label %9

9:                                                ; preds = %6
  %10 = load ptr, ptr @lib_ctx, align 8, !tbaa !27
  %11 = tail call ptr @EVP_PKEY_CTX_new_from_pkey(ptr noundef %10, ptr noundef %4, ptr noundef null) #5
  %12 = tail call i32 @test_ptr(ptr noundef nonnull @.str.29, i32 noundef 205, ptr noundef nonnull @.str.78, ptr noundef %11) #5
  %.not15 = icmp eq i32 %12, 0
  br i1 %.not15, label %16, label %13

13:                                               ; preds = %9
  %14 = tail call i32 @EVP_PKEY_check(ptr noundef %11) #5
  %15 = tail call i32 @test_int_eq(ptr noundef nonnull @.str.29, i32 noundef 206, ptr noundef nonnull @.str.79, ptr noundef nonnull @.str.44, i32 noundef %14, i32 noundef 1) #5
  %.not16 = icmp ne i32 %15, 0
  %spec.select = zext i1 %.not16 to i32
  br label %16

16:                                               ; preds = %13, %0, %3, %6, %9
  %.012 = phi i32 [ 0, %9 ], [ 0, %6 ], [ 0, %3 ], [ 0, %0 ], [ %spec.select, %13 ]
  %.011 = phi ptr [ %4, %9 ], [ %4, %6 ], [ %4, %3 ], [ null, %0 ], [ %4, %13 ]
  %.0 = phi ptr [ %11, %9 ], [ null, %6 ], [ null, %3 ], [ null, %0 ], [ %11, %13 ]
  tail call void @EVP_PKEY_free(ptr noundef %1) #5
  tail call void @EVP_PKEY_free(ptr noundef %.011) #5
  tail call void @EVP_PKEY_CTX_free(ptr noundef %.0) #5
  ret i32 %.012
}